; Function Attrs: mustprogress uwtable
define void @_ZN7rocksdb18WritableFileWriter18UpdateFileChecksumERKNS_5SliceE(ptr noundef nonnull readonly align 8 captures(none) dereferenceable(258) %0, ptr noundef nonnull readonly align 8 captures(none) dereferenceable(16) %1) local_unnamed_addr #4 align 2 {
  %3 = getelementptr inbounds nuw i8, ptr %0, i64 240
  %4 = load ptr, ptr %3, align 8, !tbaa !158
  %.not = icmp eq ptr %4, null
  br i1 %.not, label %12, label %5

5:                                                ; preds = %2
  %6 = load ptr, ptr %1, align 8, !tbaa !178
  %7 = getelementptr inbounds nuw i8, ptr %1, i64 8
  %8 = load i64, ptr %7, align 8, !tbaa !180
  %9 = load ptr, ptr %4, align 8, !tbaa !48
  %10 = getelementptr inbounds nuw i8, ptr %9, i64 16
  %11 = load ptr, ptr %10, align 8
  tail call void %11(ptr noundef nonnull align 8 dereferenceable(8) %4, ptr noundef %6, i64 noundef %8)
  br label %12

12:                                               ; preds = %5, %2
  ret void
}